target datalayout = "e-m:e-p270:32:32-p271:32:32-p272:64:64-i64:64-i128:128-f80:128-n8:16:32:64-S128"
target triple = "x86_64-pc-linux-gnu"

%struct.PJconsts = type { ptr, ptr, ptr, ptr, ptr, ptr, ptr, ptr, ptr, ptr, ptr, ptr, i32, ptr, ptr, ptr, ptr, ptr, ptr, ptr, ptr, double, double, double, double, double, double, double, double, double, double, double, double, double, double, double, double, double, double, double, double, double, double, i32, i32, i32, i32, i32, i32, i32, i32, i32, i32, i32, ptr, ptr, ptr, ptr, ptr, ptr, double, double, double, double, double, double, double, double, double, double, double, i32, [7 x double], i32, ptr, ptr, double, double, i32, [4 x i8], %"class.std::shared_ptr", i8, double, i8, %"class.std::__cxx11::basic_string", %"class.std::__cxx11::basic_string", %"class.std::__cxx11::basic_string", i8, %"class.std::vector", i32, %"class.std::vector.3", i32, i8, i8, i8, ptr }
%"class.std::shared_ptr" = type { %"class.std::__shared_ptr" }
%"class.std::__shared_ptr" = type { ptr, %"class.std::__shared_count" }
%"class.std::__shared_count" = type { ptr }
%"class.std::__cxx11::basic_string" = type { %"struct.std::__cxx11::basic_string<char>::_Alloc_hider", i64, %union.anon }
%"struct.std::__cxx11::basic_string<char>::_Alloc_hider" = type { ptr }
%union.anon = type { i64, [8 x i8] }
%"class.std::vector" = type { %"struct.std::_Vector_base" }
%"struct.std::_Vector_base" = type { %"struct.std::_Vector_base<osgeo::proj::operation::GridDescription, std::allocator<osgeo::proj::operation::GridDescription>>::_Vector_impl" }
%"struct.std::_Vector_base<osgeo::proj::operation::GridDescription, std::allocator<osgeo::proj::operation::GridDescription>>::_Vector_impl" = type { %"struct.std::_Vector_base<osgeo::proj::operation::GridDescription, std::allocator<osgeo::proj::operation::GridDescription>>::_Vector_impl_data" }
%"struct.std::_Vector_base<osgeo::proj::operation::GridDescription, std::allocator<osgeo::proj::operation::GridDescription>>::_Vector_impl_data" = type { ptr, ptr, ptr }
%"class.std::vector.3" = type { %"struct.std::_Vector_base.4" }
%"struct.std::_Vector_base.4" = type { %"struct.std::_Vector_base<PJCoordOperation, std::allocator<PJCoordOperation>>::_Vector_impl" }
%"struct.std::_Vector_base<PJCoordOperation, std::allocator<PJCoordOperation>>::_Vector_impl" = type { %"struct.std::_Vector_base<PJCoordOperation, std::allocator<PJCoordOperation>>::_Vector_impl_data" }
%"struct.std::_Vector_base<PJCoordOperation, std::allocator<PJCoordOperation>>::_Vector_impl_data" = type { ptr, ptr, ptr }
%"struct.(anonymous namespace)::pj_laea_data" = type { double, double, double, double, double, double, double, double, ptr, i32 }
%struct.PJ_LP = type { double, double }
%struct.PJ_XY = type { double, double }

; Function Attrs: mustprogress uwtable
define internal { double, double } @_ZL14laea_s_forward5PJ_LPP8PJconsts(double %0, double %1, ptr noundef %2) #0 {
  %4 = alloca %struct.PJ_XY, align 8
  %5 = alloca %struct.PJ_LP, align 8
  %6 = alloca ptr, align 8
  %7 = alloca ptr, align 8
  %8 = alloca double, align 8
  %9 = alloca double, align 8
  %10 = alloca double, align 8
  %11 = alloca i32, align 4
  %12 = getelementptr inbounds nuw { double, double }, ptr %5, i32 0, i32 0
  store double %0, ptr %12, align 8
  %13 = getelementptr inbounds nuw { double, double }, ptr %5, i32 0, i32 1
  store double %1, ptr %13, align 8
  store ptr %2, ptr %6, align 8, !tbaa !3
  call void @llvm.memset.p0.i64(ptr align 8 %4, i8 0, i64 16, i1 false)
  call void @llvm.lifetime.start.p0(i64 8, ptr %7) #7
  %14 = load ptr, ptr %6, align 8, !tbaa !3
  %15 = getelementptr inbounds nuw %struct.PJconsts, ptr %14, i32 0, i32 11
  %16 = load ptr, ptr %15, align 8, !tbaa !43
  store ptr %16, ptr %7, align 8, !tbaa !41
  call void @llvm.lifetime.start.p0(i64 8, ptr %8) #7
  call void @llvm.lifetime.start.p0(i64 8, ptr %9) #7
  call void @llvm.lifetime.start.p0(i64 8, ptr %10) #7
  %17 = getelementptr inbounds nuw %struct.PJ_LP, ptr %5, i32 0, i32 1
  %18 = load double, ptr %17, align 8, !tbaa !71
  %19 = call double @sin(double noundef %18) #7, !tbaa !52
  store double %19, ptr %10, align 8, !tbaa !46
  %20 = getelementptr inbounds nuw %struct.PJ_LP, ptr %5, i32 0, i32 1
  %21 = load double, ptr %20, align 8, !tbaa !71
  %22 = call double @cos(double noundef %21) #7, !tbaa !52
  store double %22, ptr %9, align 8, !tbaa !46
  %23 = getelementptr inbounds nuw %struct.PJ_LP, ptr %5, i32 0, i32 0
  %24 = load double, ptr %23, align 8, !tbaa !69
  %25 = call double @cos(double noundef %24) #7, !tbaa !52
  store double %25, ptr %8, align 8, !tbaa !46
  %26 = load ptr, ptr %7, align 8, !tbaa !41
  %27 = getelementptr inbounds nuw %"struct.(anonymous namespace)::pj_laea_data", ptr %26, i32 0, i32 9
  %28 = load i32, ptr %27, align 8, !tbaa !47
  switch i32 %28, label %143 [
    i32 2, label %29
    i32 3, label %34
    i32 0, label %95
    i32 1, label %98
  ]

29:                                               ; preds = %3
  %30 = load double, ptr %9, align 8, !tbaa !46
  %31 = load double, ptr %8, align 8, !tbaa !46
  %32 = call double @llvm.fmuladd.f64(double %30, double %31, double 1.000000e+00)
  %33 = getelementptr inbounds nuw %struct.PJ_XY, ptr %4, i32 0, i32 1
  store double %32, ptr %33, align 8, !tbaa !68
  br label %48

34:                                               ; preds = %3
  %35 = load ptr, ptr %7, align 8, !tbaa !41
  %36 = getelementptr inbounds nuw %"struct.(anonymous namespace)::pj_laea_data", ptr %35, i32 0, i32 0
  %37 = load double, ptr %36, align 8, !tbaa !62
  %38 = load double, ptr %10, align 8, !tbaa !46
  %39 = call double @llvm.fmuladd.f64(double %37, double %38, double 1.000000e+00)
  %40 = load ptr, ptr %7, align 8, !tbaa !41
  %41 = getelementptr inbounds nuw %"struct.(anonymous namespace)::pj_laea_data", ptr %40, i32 0, i32 1
  %42 = load double, ptr %41, align 8, !tbaa !63
  %43 = load double, ptr %9, align 8, !tbaa !46
  %44 = fmul double %42, %43
  %45 = load double, ptr %8, align 8, !tbaa !46
  %46 = call double @llvm.fmuladd.f64(double %44, double %45, double %39)
  %47 = getelementptr inbounds nuw %struct.PJ_XY, ptr %4, i32 0, i32 1
  store double %46, ptr %47, align 8, !tbaa !68
  br label %48

48:                                               ; preds = %34, %29
  %49 = getelementptr inbounds nuw %struct.PJ_XY, ptr %4, i32 0, i32 1
  %50 = load double, ptr %49, align 8, !tbaa !68
  %51 = fcmp ole double %50, 1.000000e-10
  br i1 %51, label %52, label %55

52:                                               ; preds = %48
  %53 = load ptr, ptr %6, align 8, !tbaa !3
  %54 = call i32 @proj_errno_set(ptr noundef %53, i32 noundef 2050)
  store i32 1, ptr %11, align 4
  br label %144

55:                                               ; preds = %48
  %56 = getelementptr inbounds nuw %struct.PJ_XY, ptr %4, i32 0, i32 1
  %57 = load double, ptr %56, align 8, !tbaa !68
  %58 = fdiv double 2.000000e+00, %57
  %59 = call double @sqrt(double noundef %58) #7, !tbaa !52
  %60 = getelementptr inbounds nuw %struct.PJ_XY, ptr %4, i32 0, i32 1
  store double %59, ptr %60, align 8, !tbaa !68
  %61 = getelementptr inbounds nuw %struct.PJ_XY, ptr %4, i32 0, i32 1
  %62 = load double, ptr %61, align 8, !tbaa !68
  %63 = load double, ptr %9, align 8, !tbaa !46
  %64 = fmul double %62, %63
  %65 = getelementptr inbounds nuw %struct.PJ_LP, ptr %5, i32 0, i32 0
  %66 = load double, ptr %65, align 8, !tbaa !69
  %67 = call double @sin(double noundef %66) #7, !tbaa !52
  %68 = fmul double %64, %67
  %69 = getelementptr inbounds nuw %struct.PJ_XY, ptr %4, i32 0, i32 0
  store double %68, ptr %69, align 8, !tbaa !66
  %70 = load ptr, ptr %7, align 8, !tbaa !41
  %71 = getelementptr inbounds nuw %"struct.(anonymous namespace)::pj_laea_data", ptr %70, i32 0, i32 9
  %72 = load i32, ptr %71, align 8, !tbaa !47
  %73 = icmp eq i32 %72, 2
  br i1 %73, label %74, label %76

74:                                               ; preds = %55
  %75 = load double, ptr %10, align 8, !tbaa !46
  br label %90

76:                                               ; preds = %55
  %77 = load ptr, ptr %7, align 8, !tbaa !41
  %78 = getelementptr inbounds nuw %"struct.(anonymous namespace)::pj_laea_data", ptr %77, i32 0, i32 1
  %79 = load double, ptr %78, align 8, !tbaa !63
  %80 = load double, ptr %10, align 8, !tbaa !46
  %81 = load ptr, ptr %7, align 8, !tbaa !41
  %82 = getelementptr inbounds nuw %"struct.(anonymous namespace)::pj_laea_data", ptr %81, i32 0, i32 0
  %83 = load double, ptr %82, align 8, !tbaa !62
  %84 = load double, ptr %9, align 8, !tbaa !46
  %85 = fmul double %83, %84
  %86 = load double, ptr %8, align 8, !tbaa !46
  %87 = fmul double %85, %86
  %88 = fneg double %87
  %89 = call double @llvm.fmuladd.f64(double %79, double %80, double %88)
  br label %90

90:                                               ; preds = %76, %74
  %91 = phi double [ %75, %74 ], [ %89, %76 ]
  %92 = getelementptr inbounds nuw %struct.PJ_XY, ptr %4, i32 0, i32 1
  %93 = load double, ptr %92, align 8, !tbaa !68
  %94 = fmul double %93, %91
  store double %94, ptr %92, align 8, !tbaa !68
  br label %143

95:                                               ; preds = %3
  %96 = load double, ptr %8, align 8, !tbaa !46
  %97 = fneg double %96
  store double %97, ptr %8, align 8, !tbaa !46
  br label %98

98:                                               ; preds = %3, %95
  %99 = getelementptr inbounds nuw %struct.PJ_LP, ptr %5, i32 0, i32 1
  %100 = load double, ptr %99, align 8, !tbaa !71
  %101 = load ptr, ptr %6, align 8, !tbaa !3
  %102 = getelementptr inbounds nuw %struct.PJconsts, ptr %101, i32 0, i32 61
  %103 = load double, ptr %102, align 8, !tbaa !45
  %104 = fadd double %100, %103
  %105 = call double @llvm.fabs.f64(double %104)
  %106 = fcmp olt double %105, 1.000000e-10
  br i1 %106, label %107, label %110

107:                                              ; preds = %98
  %108 = load ptr, ptr %6, align 8, !tbaa !3
  %109 = call i32 @proj_errno_set(ptr noundef %108, i32 noundef 2050)
  store i32 1, ptr %11, align 4
  br label %144

110:                                              ; preds = %98
  %111 = getelementptr inbounds nuw %struct.PJ_LP, ptr %5, i32 0, i32 1
  %112 = load double, ptr %111, align 8, !tbaa !71
  %113 = fneg double %112
  %114 = call double @llvm.fmuladd.f64(double %113, double 5.000000e-01, double 0x3FE921FB54442D18)
  %115 = getelementptr inbounds nuw %struct.PJ_XY, ptr %4, i32 0, i32 1
  store double %114, ptr %115, align 8, !tbaa !68
  %116 = load ptr, ptr %7, align 8, !tbaa !41
  %117 = getelementptr inbounds nuw %"struct.(anonymous namespace)::pj_laea_data", ptr %116, i32 0, i32 9
  %118 = load i32, ptr %117, align 8, !tbaa !47
  %119 = icmp eq i32 %118, 1
  br i1 %119, label %120, label %124

120:                                              ; preds = %110
  %121 = getelementptr inbounds nuw %struct.PJ_XY, ptr %4, i32 0, i32 1
  %122 = load double, ptr %121, align 8, !tbaa !68
  %123 = call double @cos(double noundef %122) #7, !tbaa !52
  br label %128

124:                                              ; preds = %110
  %125 = getelementptr inbounds nuw %struct.PJ_XY, ptr %4, i32 0, i32 1
  %126 = load double, ptr %125, align 8, !tbaa !68
  %127 = call double @sin(double noundef %126) #7, !tbaa !52
  br label %128

128:                                              ; preds = %124, %120
  %129 = phi double [ %123, %120 ], [ %127, %124 ]
  %130 = fmul double 2.000000e+00, %129
  %131 = getelementptr inbounds nuw %struct.PJ_XY, ptr %4, i32 0, i32 1
  store double %130, ptr %131, align 8, !tbaa !68
  %132 = getelementptr inbounds nuw %struct.PJ_XY, ptr %4, i32 0, i32 1
  %133 = load double, ptr %132, align 8, !tbaa !68
  %134 = getelementptr inbounds nuw %struct.PJ_LP, ptr %5, i32 0, i32 0
  %135 = load double, ptr %134, align 8, !tbaa !69
  %136 = call double @sin(double noundef %135) #7, !tbaa !52
  %137 = fmul double %133, %136
  %138 = getelementptr inbounds nuw %struct.PJ_XY, ptr %4, i32 0, i32 0
  store double %137, ptr %138, align 8, !tbaa !66
  %139 = load double, ptr %8, align 8, !tbaa !46
  %140 = getelementptr inbounds nuw %struct.PJ_XY, ptr %4, i32 0, i32 1
  %141 = load double, ptr %140, align 8, !tbaa !68
  %142 = fmul double %141, %139
  store double %142, ptr %140, align 8, !tbaa !68
  br label %143

143:                                              ; preds = %3, %128, %90
  store i32 1, ptr %11, align 4
  br label %144

144:                                              ; preds = %143, %107, %52
  call void @llvm.lifetime.end.p0(i64 8, ptr %10) #7
  call void @llvm.lifetime.end.p0(i64 8, ptr %9) #7
  call void @llvm.lifetime.end.p0(i64 8, ptr %8) #7
  call void @llvm.lifetime.end.p0(i64 8, ptr %7) #7
  %145 = load { double, double }, ptr %4, align 8
  ret { double, double } %145
}