; Function Attrs: mustprogress uwtable
define internal { double, double } @_ZL14laea_s_forward5PJ_LPP8PJconsts(double %0, double %1, ptr noundef %2) #0 {
  %4 = getelementptr inbounds nuw i8, ptr %2, i64 88
  %5 = load ptr, ptr %4, align 8, !tbaa !40
  %6 = tail call double @sin(double noundef %1) #7, !tbaa !49
  %7 = tail call double @cos(double noundef %1) #7, !tbaa !49
  %8 = tail call double @cos(double noundef %0) #7, !tbaa !49
  %9 = getelementptr inbounds nuw i8, ptr %5, i64 72
  %10 = load i32, ptr %9, align 8, !tbaa !47
  switch i32 %10, label %66 [
    i32 2, label %11
    i32 3, label %13
    i32 0, label %42
    i32 1, label %44
  ]

11:                                               ; preds = %3
  %12 = tail call double @llvm.fmuladd.f64(double %7, double %8, double 1.000000e+00)
  br label %20

13:                                               ; preds = %3
  %14 = load double, ptr %5, align 8, !tbaa !58
  %15 = tail call double @llvm.fmuladd.f64(double %14, double %6, double 1.000000e+00)
  %16 = getelementptr inbounds nuw i8, ptr %5, i64 8
  %17 = load double, ptr %16, align 8, !tbaa !59
  %18 = fmul double %7, %17
  %19 = tail call double @llvm.fmuladd.f64(double %18, double %8, double %15)
  br label %20

20:                                               ; preds = %13, %11
  %.sroa.429.1 = phi double [ %19, %13 ], [ %12, %11 ]
  %21 = fcmp ugt double %.sroa.429.1, 1.000000e-10
  br i1 %21, label %24, label %22

22:                                               ; preds = %20
  %23 = tail call i32 @proj_errno_set(ptr noundef nonnull %2, i32 noundef 2050)
  br label %66

24:                                               ; preds = %20
  %25 = fdiv double 2.000000e+00, %.sroa.429.1
  %26 = tail call double @sqrt(double noundef %25) #7, !tbaa !49
  %27 = fmul double %7, %26
  %28 = tail call double @sin(double noundef %0) #7, !tbaa !49
  %29 = fmul double %27, %28
  %30 = icmp eq i32 %10, 2
  br i1 %30, label %39, label %31

31:                                               ; preds = %24
  %32 = getelementptr inbounds nuw i8, ptr %5, i64 8
  %33 = load double, ptr %32, align 8, !tbaa !59
  %34 = load double, ptr %5, align 8, !tbaa !58
  %35 = fmul double %7, %34
  %36 = fneg double %8
  %37 = fmul double %35, %36
  %38 = tail call double @llvm.fmuladd.f64(double %33, double %6, double %37)
  br label %39

39:                                               ; preds = %24, %31
  %40 = phi double [ %38, %31 ], [ %6, %24 ]
  %41 = fmul double %26, %40
  br label %66

42:                                               ; preds = %3
  %43 = fneg double %8
  br label %44

44:                                               ; preds = %42, %3
  %.0 = phi double [ %8, %3 ], [ %43, %42 ]
  %45 = getelementptr inbounds nuw i8, ptr %2, i64 448
  %46 = load double, ptr %45, align 8, !tbaa !42
  %47 = fadd double %1, %46
  %48 = tail call double @llvm.fabs.f64(double %47)
  %49 = fcmp olt double %48, 1.000000e-10
  br i1 %49, label %50, label %52

50:                                               ; preds = %44
  %51 = tail call i32 @proj_errno_set(ptr noundef nonnull %2, i32 noundef 2050)
  br label %66

52:                                               ; preds = %44
  %53 = fneg double %1
  %54 = tail call double @llvm.fmuladd.f64(double %53, double 5.000000e-01, double 0x3FE921FB54442D18)
  %55 = icmp eq i32 %10, 1
  br i1 %55, label %56, label %58

56:                                               ; preds = %52
  %57 = tail call double @cos(double noundef %54) #7, !tbaa !49
  br label %60

58:                                               ; preds = %52
  %59 = tail call double @sin(double noundef %54) #7, !tbaa !49
  br label %60

60:                                               ; preds = %58, %56
  %61 = phi double [ %57, %56 ], [ %59, %58 ]
  %62 = fmul double %61, 2.000000e+00
  %63 = tail call double @sin(double noundef %0) #7, !tbaa !49
  %64 = fmul double %62, %63
  %65 = fmul double %.0, %62
  br label %66

66:                                               ; preds = %3, %39, %60, %50, %22
  %.sroa.429.2 = phi double [ 0.000000e+00, %50 ], [ %.sroa.429.1, %22 ], [ 0.000000e+00, %3 ], [ %65, %60 ], [ %41, %39 ]
  %.sroa.028.1 = phi double [ 0.000000e+00, %50 ], [ 0.000000e+00, %22 ], [ 0.000000e+00, %3 ], [ %64, %60 ], [ %29, %39 ]
  %.fca.0.insert = insertvalue { double, double } poison, double %.sroa.028.1, 0
  %.fca.1.insert = insertvalue { double, double } %.fca.0.insert, double %.sroa.429.2, 1
  ret { double, double } %.fca.1.insert
}